; Function Attrs: mustprogress nofree norecurse nosync nounwind willreturn memory(read, inaccessiblemem: none) uwtable
define noundef i32 @_ZN3gmx25multiDimGridIndexToLinearERKNS_8BiasGridEPKi(ptr nocapture noundef nonnull readonly align 8 dereferenceable(48) %0, ptr nocapture noundef readonly %1) local_unnamed_addr #0 {
  %3 = alloca [4 x i32], align 16
  %4 = getelementptr inbounds i8, ptr %0, i64 24
  %5 = load ptr, ptr %4, align 8
  %6 = getelementptr inbounds i8, ptr %0, i64 32
  %7 = load ptr, ptr %6, align 8
  %8 = ptrtoint ptr %5 to i64
  call void @llvm.lifetime.start.p0(i64 16, ptr nonnull %3)
  call void @llvm.memset.p0.i64(ptr noundef nonnull align 16 dereferenceable(16) %3, i8 0, i64 16, i1 false)
  %9 = ptrtoint ptr %7 to i64
  %10 = sub i64 %9, %8
  %11 = sdiv exact i64 %10, 48
  %.not.i = icmp eq ptr %7, %5
  br i1 %.not.i, label %._crit_edge.i, label %.lr.ph.preheader.i

.lr.ph.preheader.i:                               ; preds = %2
  %umax.i = tail call i64 @llvm.umax.i64(i64 %11, i64 1)
  br label %.lr.ph.i

.lr.ph.i:                                         ; preds = %.lr.ph.i, %.lr.ph.preheader.i
  %.07.i = phi i64 [ %15, %.lr.ph.i ], [ 0, %.lr.ph.preheader.i ]
  %12 = getelementptr inbounds %"class.gmx::GridAxis", ptr %5, i64 %.07.i, i32 4
  %13 = load i32, ptr %12, align 8
  %14 = getelementptr inbounds [4 x i32], ptr %3, i64 0, i64 %.07.i
  store i32 %13, ptr %14, align 4
  %15 = add nuw i64 %.07.i, 1
  %exitcond.not.i = icmp eq i64 %15, %umax.i
  br i1 %exitcond.not.i, label %._crit_edge.i, label %.lr.ph.i, !llvm.loop !13

._crit_edge.i:                                    ; preds = %.lr.ph.i, %2
  %16 = trunc i64 %11 to i32
  %17 = icmp sgt i32 %16, 0
  br i1 %17, label %.lr.ph.preheader.i.i, label %_ZN3gmx12_GLOBAL__N_125multiDimGridIndexToLinearENS_8ArrayRefIKNS_8GridAxisEEEPKi.exit

.lr.ph.preheader.i.i:                             ; preds = %._crit_edge.i
  %18 = and i64 %11, 2147483647
  br label %.lr.ph.i.i

.lr.ph.i.i:                                       ; preds = %.lr.ph.i.i, %.lr.ph.preheader.i.i
  %indvars.iv.i.i = phi i64 [ %18, %.lr.ph.preheader.i.i ], [ %indvars.iv.next.i.i, %.lr.ph.i.i ]
  %.01013.i.i = phi i32 [ 0, %.lr.ph.preheader.i.i ], [ %22, %.lr.ph.i.i ]
  %.01112.i.i = phi i32 [ 1, %.lr.ph.preheader.i.i ], [ %25, %.lr.ph.i.i ]
  %indvars.iv.next.i.i = add nsw i64 %indvars.iv.i.i, -1
  %19 = getelementptr inbounds i32, ptr %1, i64 %indvars.iv.next.i.i
  %20 = load i32, ptr %19, align 4
  %21 = mul nsw i32 %20, %.01112.i.i
  %22 = add nsw i32 %21, %.01013.i.i
  %23 = getelementptr inbounds i32, ptr %3, i64 %indvars.iv.next.i.i
  %24 = load i32, ptr %23, align 4
  %25 = mul nsw i32 %24, %.01112.i.i
  %26 = icmp ugt i64 %indvars.iv.i.i, 1
  br i1 %26, label %.lr.ph.i.i, label %_ZN3gmx12_GLOBAL__N_125multiDimGridIndexToLinearENS_8ArrayRefIKNS_8GridAxisEEEPKi.exit, !llvm.loop !12

_ZN3gmx12_GLOBAL__N_125multiDimGridIndexToLinearENS_8ArrayRefIKNS_8GridAxisEEEPKi.exit: ; preds = %.lr.ph.i.i, %._crit_edge.i
  %.010.lcssa.i.i = phi i32 [ 0, %._crit_edge.i ], [ %22, %.lr.ph.i.i ]
  call void @llvm.lifetime.end.p0(i64 16, ptr nonnull %3)
  ret i32 %.010.lcssa.i.i
}